
mulhu_parallel_independent.elf:     file format elf64-littleriscv


Disassembly of section .text.init:

0000000080000000 <_start>:
    80000000:	002472b7          	lui	t0,0x247
    80000004:	8ad2829b          	addiw	t0,t0,-1875 # 2468ad <_start-0x7fdb9753>
    80000008:	00e29293          	slli	t0,t0,0xe
    8000000c:	c4d28293          	addi	t0,t0,-947
    80000010:	00c29293          	slli	t0,t0,0xc
    80000014:	5e728293          	addi	t0,t0,1511
    80000018:	00d29293          	slli	t0,t0,0xd
    8000001c:	ef028293          	addi	t0,t0,-272
    80000020:	001fe337          	lui	t1,0x1fe
    80000024:	b973031b          	addiw	t1,t1,-1129 # 1fdb97 <_start-0x7fe02469>
    80000028:	00c31313          	slli	t1,t1,0xc
    8000002c:	53130313          	addi	t1,t1,1329
    80000030:	00d31313          	slli	t1,t1,0xd
    80000034:	d9530313          	addi	t1,t1,-619
    80000038:	00e31313          	slli	t1,t1,0xe
    8000003c:	32130313          	addi	t1,t1,801
    80000040:	01111537          	lui	a0,0x1111
    80000044:	1115051b          	addiw	a0,a0,273 # 1111111 <_start-0x7eeeeeef>
    80000048:	00c51513          	slli	a0,a0,0xc
    8000004c:	11150513          	addi	a0,a0,273
    80000050:	00c51513          	slli	a0,a0,0xc
    80000054:	11150513          	addi	a0,a0,273
    80000058:	00c51513          	slli	a0,a0,0xc
    8000005c:	11150513          	addi	a0,a0,273
    80000060:	011115b7          	lui	a1,0x1111
    80000064:	1115859b          	addiw	a1,a1,273 # 1111111 <_start-0x7eeeeeef>
    80000068:	00c59593          	slli	a1,a1,0xc
    8000006c:	11158593          	addi	a1,a1,273
    80000070:	00c59593          	slli	a1,a1,0xc
    80000074:	11158593          	addi	a1,a1,273
    80000078:	00d59593          	slli	a1,a1,0xd
    8000007c:	22258593          	addi	a1,a1,546
    80000080:	03333637          	lui	a2,0x3333
    80000084:	3336061b          	addiw	a2,a2,819 # 3333333 <_start-0x7ccccccd>
    80000088:	00c61613          	slli	a2,a2,0xc
    8000008c:	33360613          	addi	a2,a2,819
    80000090:	00c61613          	slli	a2,a2,0xc
    80000094:	33360613          	addi	a2,a2,819
    80000098:	00c61613          	slli	a2,a2,0xc
    8000009c:	33360613          	addi	a2,a2,819
    800000a0:	011116b7          	lui	a3,0x1111
    800000a4:	1116869b          	addiw	a3,a3,273 # 1111111 <_start-0x7eeeeeef>
    800000a8:	00c69693          	slli	a3,a3,0xc
    800000ac:	11168693          	addi	a3,a3,273
    800000b0:	00c69693          	slli	a3,a3,0xc
    800000b4:	11168693          	addi	a3,a3,273
    800000b8:	00e69693          	slli	a3,a3,0xe
    800000bc:	44468693          	addi	a3,a3,1092
    800000c0:	05555737          	lui	a4,0x5555
    800000c4:	5557071b          	addiw	a4,a4,1365 # 5555555 <_start-0x7aaaaaab>
    800000c8:	00c71713          	slli	a4,a4,0xc
    800000cc:	55570713          	addi	a4,a4,1365
    800000d0:	00c71713          	slli	a4,a4,0xc
    800000d4:	55570713          	addi	a4,a4,1365
    800000d8:	00c71713          	slli	a4,a4,0xc
    800000dc:	55570713          	addi	a4,a4,1365
    800000e0:	033337b7          	lui	a5,0x3333
    800000e4:	3337879b          	addiw	a5,a5,819 # 3333333 <_start-0x7ccccccd>
    800000e8:	00c79793          	slli	a5,a5,0xc
    800000ec:	33378793          	addi	a5,a5,819
    800000f0:	00c79793          	slli	a5,a5,0xc
    800000f4:	33378793          	addi	a5,a5,819
    800000f8:	00d79793          	slli	a5,a5,0xd
    800000fc:	66678793          	addi	a5,a5,1638
    80000100:	07777837          	lui	a6,0x7777
    80000104:	7778081b          	addiw	a6,a6,1911 # 7777777 <_start-0x78888889>
    80000108:	00c81813          	slli	a6,a6,0xc
    8000010c:	77780813          	addi	a6,a6,1911
    80000110:	00c81813          	slli	a6,a6,0xc
    80000114:	77780813          	addi	a6,a6,1911
    80000118:	00c81813          	slli	a6,a6,0xc
    8000011c:	77780813          	addi	a6,a6,1911
    80000120:	f88898b7          	lui	a7,0xf8889
    80000124:	8898889b          	addiw	a7,a7,-1911 # fffffffff8888889 <__global_pointer$+0xffffffff78886051>
    80000128:	00c89893          	slli	a7,a7,0xc
    8000012c:	88988893          	addi	a7,a7,-1911
    80000130:	00c89893          	slli	a7,a7,0xc
    80000134:	88988893          	addi	a7,a7,-1911
    80000138:	00c89893          	slli	a7,a7,0xc
    8000013c:	88888893          	addi	a7,a7,-1912
    80000140:	00000393          	li	t2,0
    80000144:	3e800a13          	li	s4,1000
    80000148:	00000b13          	li	s6,0
    8000014c:	00000b93          	li	s7,0
    80000150:	b0002e73          	csrr	t3,mcycle
    80000154:	b0202ef3          	csrr	t4,minstret

0000000080000158 <test_loop>:
    80000158:	00128293          	addi	t0,t0,1
    8000015c:	00250513          	addi	a0,a0,2
    80000160:	00360613          	addi	a2,a2,3
    80000164:	00570713          	addi	a4,a4,5
    80000168:	00780813          	addi	a6,a6,7
    8000016c:	b0002c73          	csrr	s8,mcycle
    80000170:	0262b933          	mulhu	s2,t0,t1
    80000174:	02b539b3          	mulhu	s3,a0,a1
    80000178:	02d63ab3          	mulhu	s5,a2,a3
    8000017c:	02f73cb3          	mulhu	s9,a4,a5
    80000180:	03183d33          	mulhu	s10,a6,a7
    80000184:	02533db3          	mulhu	s11,t1,t0
    80000188:	02a5bf33          	mulhu	t5,a1,a0
    8000018c:	02c6bfb3          	mulhu	t6,a3,a2
    80000190:	02e7b433          	mulhu	s0,a5,a4
    80000194:	0308b4b3          	mulhu	s1,a7,a6
    80000198:	b0002cf3          	csrr	s9,mcycle
    8000019c:	418c8233          	sub	tp,s9,s8
    800001a0:	004b0b33          	add	s6,s6,tp
    800001a4:	001b8b93          	addi	s7,s7,1
    800001a8:	012383b3          	add	t2,t2,s2
    800001ac:	013383b3          	add	t2,t2,s3
    800001b0:	015383b3          	add	t2,t2,s5
    800001b4:	01a383b3          	add	t2,t2,s10
    800001b8:	01b383b3          	add	t2,t2,s11
    800001bc:	01e383b3          	add	t2,t2,t5
    800001c0:	01f383b3          	add	t2,t2,t6
    800001c4:	008383b3          	add	t2,t2,s0
    800001c8:	009383b3          	add	t2,t2,s1
    800001cc:	fffa0a13          	addi	s4,s4,-1
    800001d0:	f80a14e3          	bnez	s4,80000158 <test_loop>
    800001d4:	b0002f73          	csrr	t5,mcycle
    800001d8:	b0202ff3          	csrr	t6,minstret
    800001dc:	00002417          	auipc	s0,0x2
    800001e0:	e2440413          	addi	s0,s0,-476 # 80002000 <profiling_data>
    800001e4:	01743023          	sd	s7,0(s0)
    800001e8:	01643423          	sd	s6,8(s0)
    800001ec:	41cf04b3          	sub	s1,t5,t3
    800001f0:	00943823          	sd	s1,16(s0)
    800001f4:	037b4d33          	div	s10,s6,s7
    800001f8:	01a43c23          	sd	s10,24(s0)
    800001fc:	00a00d93          	li	s11,10
    80000200:	03bd4d33          	div	s10,s10,s11
    80000204:	03a43023          	sd	s10,32(s0)
    80000208:	036bc233          	div	tp,s7,s6
    8000020c:	02443423          	sd	tp,40(s0)
    80000210:	06400d93          	li	s11,100
    80000214:	03bb0db3          	mul	s11,s6,s11
    80000218:	029dcdb3          	div	s11,s11,s1
    8000021c:	03b43823          	sd	s11,48(s0)
    80000220:	00001417          	auipc	s0,0x1
    80000224:	de040413          	addi	s0,s0,-544 # 80001000 <tohost>
    80000228:	00100493          	li	s1,1
    8000022c:	00943023          	sd	s1,0(s0)

0000000080000230 <done>:
    80000230:	0000006f          	j	80000230 <done>
